Archive member included to satisfy reference by file (symbol)

/usr/bin/../lib/gcc/arm-none-eabi/10.2.1/../../../../arm-none-eabi/lib/thumb/v6-m/nofp/libc.a(lib_a-memcpy-stub.o)
                              falcon.o (memcpy)
/usr/bin/../lib/gcc/arm-none-eabi/10.2.1/../../../../arm-none-eabi/lib/thumb/v6-m/nofp/libc.a(lib_a-memset.o)
                              falcon.o (memset)
/usr/bin/../lib/gcc/arm-none-eabi/10.2.1/thumb/v6-m/nofp/libgcc.a(_thumb1_case_uqi.o)
                              falcon.o (__gnu_thumb1_case_uqi)
/usr/bin/../lib/gcc/arm-none-eabi/10.2.1/thumb/v6-m/nofp/libgcc.a(_lshrdi3.o)
                              fpr.o (__aeabi_llsr)
/usr/bin/../lib/gcc/arm-none-eabi/10.2.1/thumb/v6-m/nofp/libgcc.a(_ashldi3.o)
                              fpr.o (__aeabi_llsl)
/usr/bin/../lib/gcc/arm-none-eabi/10.2.1/thumb/v6-m/nofp/libgcc.a(_muldi3.o)
                              fpr.o (__aeabi_lmul)

Discarded input sections

 .text          0x0000000000000000        0x0 vector.o
 .data          0x0000000000000000        0x0 vector.o
 .bss           0x0000000000000000        0x0 vector.o
 .text          0x0000000000000000        0x0 project.o
 .data          0x0000000000000000        0x0 project.o
 .bss           0x0000000000000000        0x0 project.o
 .text          0x0000000000000000        0x0 common.o
 .data          0x0000000000000000        0x0 common.o
 .bss           0x0000000000000000        0x0 common.o
 .text.falcon_inner_hash_to_point_vartime
                0x0000000000000000       0x48 common.o
 .text.falcon_inner_hash_to_point_ct
                0x0000000000000000      0x164 common.o
 .text.falcon_inner_is_short
                0x0000000000000000       0x40 common.o
 .text.falcon_inner_is_short_half
                0x0000000000000000       0x34 common.o
 .rodata.l2bound
                0x0000000000000000       0x2c common.o
 .rodata.overtab.0
                0x0000000000000000       0x16 common.o
 .debug_info    0x0000000000000000      0x88a common.o
 .debug_abbrev  0x0000000000000000      0x246 common.o
 .debug_loc     0x0000000000000000      0x8ca common.o
 .debug_aranges
                0x0000000000000000       0x38 common.o
 .debug_ranges  0x0000000000000000       0x80 common.o
 .debug_line    0x0000000000000000      0x4e8 common.o
 .debug_str     0x0000000000000000      0x3a7 common.o
 .comment       0x0000000000000000       0x4e common.o
 .debug_frame   0x0000000000000000       0x94 common.o
 .ARM.attributes
                0x0000000000000000       0x2c common.o
 .text          0x0000000000000000        0x0 falcon.o
 .data          0x0000000000000000        0x0 falcon.o
 .bss           0x0000000000000000        0x0 falcon.o
 .text.align_u64
                0x0000000000000000       0x10 falcon.o
 .text.shake256_init
                0x0000000000000000        0x8 falcon.o
 .text.shake256_inject
                0x0000000000000000        0x8 falcon.o
 .text.shake256_flip
                0x0000000000000000        0x8 falcon.o
 .text.shake256_extract
                0x0000000000000000        0x8 falcon.o
 .text.shake256_init_prng_from_seed
                0x0000000000000000       0x18 falcon.o
 .text.shake256_init_prng_from_system
                0x0000000000000000       0x2e falcon.o
 .text.falcon_keygen_make
                0x0000000000000000      0x16c falcon.o
 .text.falcon_make_public
                0x0000000000000000      0x100 falcon.o
 .text.falcon_get_logn
                0x0000000000000000       0x16 falcon.o
 .text.falcon_sign_start
                0x0000000000000000       0x20 falcon.o
 .text.falcon_sign_dyn_finish
                0x0000000000000000      0x294 falcon.o
 .text.falcon_expand_privkey
                0x0000000000000000      0x120 falcon.o
 .text.falcon_sign_tree_finish
                0x0000000000000000      0x1d4 falcon.o
 .text.falcon_sign_dyn
                0x0000000000000000       0x4a falcon.o
 .text.falcon_sign_tree
                0x0000000000000000       0x46 falcon.o
 .text.falcon_verify_start
                0x0000000000000000       0x22 falcon.o
 .text.falcon_verify_finish
                0x0000000000000000      0x208 falcon.o
 .text.falcon_verify
                0x0000000000000000       0x44 falcon.o
 .debug_info    0x0000000000000000     0x25f8 falcon.o
 .debug_abbrev  0x0000000000000000      0x47e falcon.o
 .debug_loc     0x0000000000000000     0x20b7 falcon.o
 .debug_aranges
                0x0000000000000000       0xb0 falcon.o
 .debug_ranges  0x0000000000000000      0x158 falcon.o
 .debug_line    0x0000000000000000      0xfaa falcon.o
 .debug_str     0x0000000000000000      0x851 falcon.o
 .comment       0x0000000000000000       0x4e falcon.o
 .debug_frame   0x0000000000000000      0x234 falcon.o
 .ARM.attributes
                0x0000000000000000       0x2c falcon.o
 .text          0x0000000000000000        0x0 fpr.o
 .data          0x0000000000000000        0x0 fpr.o
 .bss           0x0000000000000000        0x0 fpr.o
 .text.fpr_trunc
                0x0000000000000000       0x84 fpr.o
 .text.falcon_inner_fpr_scaled
                0x0000000000000000      0x1ac fpr.o
 .text.falcon_inner_fpr_div
                0x0000000000000000      0x114 fpr.o
 .text.falcon_inner_fpr_sqrt
                0x0000000000000000      0x158 fpr.o
 .text.falcon_inner_fpr_expm_p63
                0x0000000000000000      0x15c fpr.o
 .rodata.C.0    0x0000000000000000       0x68 fpr.o
 .rodata.falcon_inner_fpr_p2_tab
                0x0000000000000000       0x58 fpr.o
 .text          0x0000000000000000        0x0 fft.o
 .data          0x0000000000000000        0x0 fft.o
 .bss           0x0000000000000000        0x0 fft.o
 .text.fpr_sqr  0x0000000000000000        0xc fft.o
 .text.falcon_inner_iFFT
                0x0000000000000000      0x1e0 fft.o
 .text.falcon_inner_poly_add
                0x0000000000000000       0x28 fft.o
 .text.falcon_inner_poly_sub
                0x0000000000000000       0x28 fft.o
 .text.falcon_inner_poly_neg
                0x0000000000000000       0x1a fft.o
 .text.falcon_inner_poly_adj_fft
                0x0000000000000000       0x22 fft.o
 .text.falcon_inner_poly_muladj_fft
                0x0000000000000000       0xc8 fft.o
 .text.falcon_inner_poly_mulselfadj_fft
                0x0000000000000000       0x4e fft.o
 .text.falcon_inner_poly_mulconst
                0x0000000000000000       0x2c fft.o
 .text.falcon_inner_poly_div_fft
                0x0000000000000000      0x128 fft.o
 .text.falcon_inner_poly_invnorm2_fft
                0x0000000000000000       0xd4 fft.o
 .text.falcon_inner_poly_add_muladj_fft
                0x0000000000000000      0x194 fft.o
 .text.falcon_inner_poly_mul_autoadj_fft
                0x0000000000000000       0x3a fft.o
 .text.falcon_inner_poly_div_autoadj_fft
                0x0000000000000000       0x5c fft.o
 .text.falcon_inner_poly_LDL_fft
                0x0000000000000000      0x1f0 fft.o
 .text.falcon_inner_poly_LDLmv_fft
                0x0000000000000000      0x200 fft.o
 .text.falcon_inner_poly_split_fft
                0x0000000000000000      0x240 fft.o
 .text.falcon_inner_poly_merge_fft
                0x0000000000000000      0x160 fft.o
 .data          0x0000000000000000        0x0 elmoasmfunctions.o
 .bss           0x0000000000000000        0x0 elmoasmfunctions.o
 .text          0x0000000000000000        0x0 /usr/bin/../lib/gcc/arm-none-eabi/10.2.1/../../../../arm-none-eabi/lib/thumb/v6-m/nofp/libc.a(lib_a-memcpy-stub.o)
 .data          0x0000000000000000        0x0 /usr/bin/../lib/gcc/arm-none-eabi/10.2.1/../../../../arm-none-eabi/lib/thumb/v6-m/nofp/libc.a(lib_a-memcpy-stub.o)
 .bss           0x0000000000000000        0x0 /usr/bin/../lib/gcc/arm-none-eabi/10.2.1/../../../../arm-none-eabi/lib/thumb/v6-m/nofp/libc.a(lib_a-memcpy-stub.o)
 .text.memcpy   0x0000000000000000       0xa4 /usr/bin/../lib/gcc/arm-none-eabi/10.2.1/../../../../arm-none-eabi/lib/thumb/v6-m/nofp/libc.a(lib_a-memcpy-stub.o)
 .debug_frame   0x0000000000000000       0x34 /usr/bin/../lib/gcc/arm-none-eabi/10.2.1/../../../../arm-none-eabi/lib/thumb/v6-m/nofp/libc.a(lib_a-memcpy-stub.o)
 .ARM.attributes
                0x0000000000000000       0x2c /usr/bin/../lib/gcc/arm-none-eabi/10.2.1/../../../../arm-none-eabi/lib/thumb/v6-m/nofp/libc.a(lib_a-memcpy-stub.o)
 .text          0x0000000000000000        0x0 /usr/bin/../lib/gcc/arm-none-eabi/10.2.1/../../../../arm-none-eabi/lib/thumb/v6-m/nofp/libc.a(lib_a-memset.o)
 .data          0x0000000000000000        0x0 /usr/bin/../lib/gcc/arm-none-eabi/10.2.1/../../../../arm-none-eabi/lib/thumb/v6-m/nofp/libc.a(lib_a-memset.o)
 .bss           0x0000000000000000        0x0 /usr/bin/../lib/gcc/arm-none-eabi/10.2.1/../../../../arm-none-eabi/lib/thumb/v6-m/nofp/libc.a(lib_a-memset.o)
 .text.memset   0x0000000000000000       0xa8 /usr/bin/../lib/gcc/arm-none-eabi/10.2.1/../../../../arm-none-eabi/lib/thumb/v6-m/nofp/libc.a(lib_a-memset.o)
 .debug_frame   0x0000000000000000       0x30 /usr/bin/../lib/gcc/arm-none-eabi/10.2.1/../../../../arm-none-eabi/lib/thumb/v6-m/nofp/libc.a(lib_a-memset.o)
 .ARM.attributes
                0x0000000000000000       0x2c /usr/bin/../lib/gcc/arm-none-eabi/10.2.1/../../../../arm-none-eabi/lib/thumb/v6-m/nofp/libc.a(lib_a-memset.o)
 .text          0x0000000000000000       0x14 /usr/bin/../lib/gcc/arm-none-eabi/10.2.1/thumb/v6-m/nofp/libgcc.a(_thumb1_case_uqi.o)
 .data          0x0000000000000000        0x0 /usr/bin/../lib/gcc/arm-none-eabi/10.2.1/thumb/v6-m/nofp/libgcc.a(_thumb1_case_uqi.o)
 .bss           0x0000000000000000        0x0 /usr/bin/../lib/gcc/arm-none-eabi/10.2.1/thumb/v6-m/nofp/libgcc.a(_thumb1_case_uqi.o)
 .ARM.attributes
                0x0000000000000000       0x1e /usr/bin/../lib/gcc/arm-none-eabi/10.2.1/thumb/v6-m/nofp/libgcc.a(_thumb1_case_uqi.o)
 .data          0x0000000000000000        0x0 /usr/bin/../lib/gcc/arm-none-eabi/10.2.1/thumb/v6-m/nofp/libgcc.a(_lshrdi3.o)
 .bss           0x0000000000000000        0x0 /usr/bin/../lib/gcc/arm-none-eabi/10.2.1/thumb/v6-m/nofp/libgcc.a(_lshrdi3.o)
 .data          0x0000000000000000        0x0 /usr/bin/../lib/gcc/arm-none-eabi/10.2.1/thumb/v6-m/nofp/libgcc.a(_ashldi3.o)
 .bss           0x0000000000000000        0x0 /usr/bin/../lib/gcc/arm-none-eabi/10.2.1/thumb/v6-m/nofp/libgcc.a(_ashldi3.o)
 .data          0x0000000000000000        0x0 /usr/bin/../lib/gcc/arm-none-eabi/10.2.1/thumb/v6-m/nofp/libgcc.a(_muldi3.o)
 .bss           0x0000000000000000        0x0 /usr/bin/../lib/gcc/arm-none-eabi/10.2.1/thumb/v6-m/nofp/libgcc.a(_muldi3.o)

Memory Configuration

Name             Origin             Length             Attributes
rom              0x0000000008000000 0x0000000000010000 xr
ram              0x0000000020000000 0x0000000000002000 xrw
*default*        0x0000000000000000 0xffffffffffffffff

Linker script and memory map

LOAD vector.o
LOAD project.o
LOAD common.o
LOAD falcon.o
LOAD fpr.o
LOAD fft.o
LOAD elmoasmfunctions.o
START GROUP
LOAD /usr/bin/../lib/gcc/arm-none-eabi/10.2.1/../../../../arm-none-eabi/lib/thumb/v6-m/nofp/libc.a
LOAD /usr/bin/../lib/gcc/arm-none-eabi/10.2.1/thumb/v6-m/nofp/libgcc.a
LOAD /usr/bin/../lib/gcc/arm-none-eabi/10.2.1/../../../../arm-none-eabi/lib/thumb/v6-m/nofp/libnosys.a
END GROUP
START GROUP
LOAD /usr/bin/../lib/gcc/arm-none-eabi/10.2.1/thumb/v6-m/nofp/libgcc.a
LOAD /usr/bin/../lib/gcc/arm-none-eabi/10.2.1/../../../../arm-none-eabi/lib/thumb/v6-m/nofp/libc.a
END GROUP

.text           0x0000000008000000     0x4a08
 *(.vectors)
 .vectors       0x0000000008000000       0xc0 vector.o
                0x0000000008000000                vector_table
 *(.text*)
 .text.blocking_handler
                0x00000000080000c0        0x2 vector.o
                0x00000000080000c0                rtc_isr
                0x00000000080000c0                tim7_isr
                0x00000000080000c0                blocking_handler
                0x00000000080000c0                tsc_isr
                0x00000000080000c0                spi1_isr
                0x00000000080000c0                i2c1_isr
                0x00000000080000c0                tim17_isr
                0x00000000080000c0                i2c2_isr
                0x00000000080000c0                usart1_isr
                0x00000000080000c0                usart3_4_isr
                0x00000000080000c0                tim1_cc_isr
                0x00000000080000c0                exti2_3_isr
                0x00000000080000c0                tim16_isr
                0x00000000080000c0                pvd_isr
                0x00000000080000c0                rcc_isr
                0x00000000080000c0                flash_isr
                0x00000000080000c0                hard_fault_handler
                0x00000000080000c0                tim14_isr
                0x00000000080000c0                spi2_isr
                0x00000000080000c0                usb_isr
                0x00000000080000c0                tim15_isr
                0x00000000080000c0                tim3_isr
                0x00000000080000c0                usart2_isr
                0x00000000080000c0                adc_comp_isr
                0x00000000080000c0                dma1_channel1_isr
                0x00000000080000c0                tim6_dac_isr
                0x00000000080000c0                tim1_brk_up_trg_com_isr
                0x00000000080000c0                dma1_channel2_3_isr
                0x00000000080000c0                exti4_15_isr
                0x00000000080000c0                cec_can_isr
                0x00000000080000c0                wwdg_isr
                0x00000000080000c0                tim2_isr
                0x00000000080000c0                dma1_channel4_5_isr
                0x00000000080000c0                exti0_1_isr
 .text.null_handler
                0x00000000080000c2        0x2 vector.o
                0x00000000080000c2                null_handler
                0x00000000080000c2                sv_call_handler
                0x00000000080000c2                pend_sv_handler
                0x00000000080000c2                sys_tick_handler
                0x00000000080000c2                nmi_handler
 .text.reset_handler
                0x00000000080000c4       0x7c vector.o
                0x00000000080000c4                reset_handler
 .text.read8bytes
                0x0000000008000140       0x36 project.o
 .text.startup.main
                0x0000000008000176       0x6c project.o
                0x0000000008000176                main
 *fill*         0x00000000080001e2        0x2 
 .text.FPR      0x00000000080001e4       0x60 fpr.o
 .text.falcon_inner_fpr_add
                0x0000000008000244      0x2ac fpr.o
                0x0000000008000244                falcon_inner_fpr_add
 .text.falcon_inner_fpr_mul
                0x00000000080004f0      0x134 fpr.o
                0x00000000080004f0                falcon_inner_fpr_mul
 .text.fpr_sub  0x0000000008000624        0xe fft.o
 *fill*         0x0000000008000632        0x2 
 .text.falcon_inner_FFT
                0x0000000008000634      0x1a4 fft.o
                0x0000000008000634                falcon_inner_FFT
 .text.falcon_inner_poly_mul_fft
                0x00000000080007d8       0xc4 fft.o
                0x00000000080007d8                falcon_inner_poly_mul_fft
 .text          0x000000000800089c       0xda elmoasmfunctions.o
                0x000000000800089c                starttrigger
                0x00000000080008ae                endtrigger
                0x00000000080008c0                readbyte
                0x00000000080008ce                LoadN
                0x00000000080008e0                randbyte
                0x00000000080008f2                getstart
                0x0000000008000904                getruncount
                0x0000000008000916                printbyte
                0x0000000008000924                endprogram
                0x0000000008000932                initialisemaskflow
                0x0000000008000942                resetmaskflow
                0x0000000008000954                setmaskflowstart
                0x0000000008000964                resetdatafile
 *fill*         0x0000000008000976        0x2 
 .text          0x0000000008000978       0x18 /usr/bin/../lib/gcc/arm-none-eabi/10.2.1/thumb/v6-m/nofp/libgcc.a(_lshrdi3.o)
                0x0000000008000978                __aeabi_llsr
                0x0000000008000978                __lshrdi3
 .text          0x0000000008000990       0x18 /usr/bin/../lib/gcc/arm-none-eabi/10.2.1/thumb/v6-m/nofp/libgcc.a(_ashldi3.o)
                0x0000000008000990                __ashldi3
                0x0000000008000990                __aeabi_llsl
 .text          0x00000000080009a8       0x5c /usr/bin/../lib/gcc/arm-none-eabi/10.2.1/thumb/v6-m/nofp/libgcc.a(_muldi3.o)
                0x00000000080009a8                __aeabi_lmul
                0x00000000080009a8                __muldi3
                0x0000000008000a04                . = ALIGN (0x4)
 *(.rodata*)
 *fill*         0x0000000008000a04        0x4 
 .rodata.falcon_inner_fpr_gm_tab
                0x0000000008000a08     0x4000 fpr.o
                0x0000000008000a08                falcon_inner_fpr_gm_tab
                0x0000000008004a08                . = ALIGN (0x4)

.glue_7         0x0000000008004a08        0x0
 .glue_7        0x0000000008004a08        0x0 linker stubs

.glue_7t        0x0000000008004a08        0x0
 .glue_7t       0x0000000008004a08        0x0 linker stubs

.vfp11_veneer   0x0000000008004a08        0x0
 .vfp11_veneer  0x0000000008004a08        0x0 linker stubs

.v4_bx          0x0000000008004a08        0x0
 .v4_bx         0x0000000008004a08        0x0 linker stubs

.iplt           0x0000000008004a08        0x0
 .iplt          0x0000000008004a08        0x0 vector.o

.rel.dyn        0x0000000008004a08        0x0
 .rel.iplt      0x0000000008004a08        0x0 vector.o

.preinit_array  0x0000000008004a08        0x0
                0x0000000008004a08                . = ALIGN (0x4)
                0x0000000008004a08                __preinit_array_start = .
 *(.preinit_array)
                0x0000000008004a08                __preinit_array_end = .

.init_array     0x0000000008004a08        0x0
                0x0000000008004a08                . = ALIGN (0x4)
                0x0000000008004a08                __init_array_start = .
 *(SORT_BY_NAME(.init_array.*))
 *(.init_array)
                0x0000000008004a08                __init_array_end = .

.fini_array     0x0000000008004a08        0x0
                0x0000000008004a08                . = ALIGN (0x4)
                0x0000000008004a08                __fini_array_start = .
 *(.fini_array)
 *(SORT_BY_NAME(.fini_array.*))
                0x0000000008004a08                __fini_array_end = .

.ARM.extab
 *(.ARM.extab*)

.ARM.exidx      0x0000000008004a08        0x0
                0x0000000008004a08                __exidx_start = .
 *(.ARM.exidx*)
                0x0000000008004a08                __exidx_end = .
                0x0000000008004a08                . = ALIGN (0x4)
                0x0000000008004a08                _etext = .

.data           0x0000000020000000        0x0 load address 0x0000000008004a08
                0x0000000020000000                _data = .
 *(.data*)
                0x0000000020000000                . = ALIGN (0x4)
                0x0000000020000000                _edata = .
                0x0000000008004a08                _data_loadaddr = LOADADDR (.data)

.igot.plt       0x0000000020000000        0x0 load address 0x0000000008004a08
 .igot.plt      0x0000000020000000        0x0 vector.o

.bss            0x0000000020000000        0x0 load address 0x0000000008004a08
 *(.bss*)
 *(COMMON)
                0x0000000020000000                . = ALIGN (0x4)
                0x0000000020000000                _ebss = .

/DISCARD/
 *(.eh_frame)
                0x0000000020000000                . = ALIGN (0x4)
                0x0000000020000000                end = .
                0x0000000020002000                PROVIDE (_stack = (ORIGIN (ram) + LENGTH (ram)))
OUTPUT(project.elf elf32-littlearm)
LOAD linker stubs

.debug_info     0x0000000000000000     0x43d4
 .debug_info    0x0000000000000000      0x2d1 vector.o
 .debug_info    0x00000000000002d1      0x5f9 project.o
 .debug_info    0x00000000000008ca      0xd50 fpr.o
 .debug_info    0x000000000000161a     0x2dba fft.o

.debug_abbrev   0x0000000000000000      0x87a
 .debug_abbrev  0x0000000000000000      0x12a vector.o
 .debug_abbrev  0x000000000000012a      0x208 project.o
 .debug_abbrev  0x0000000000000332      0x270 fpr.o
 .debug_abbrev  0x00000000000005a2      0x2d8 fft.o

.debug_loc      0x0000000000000000     0x5c71
 .debug_loc     0x0000000000000000       0xee vector.o
 .debug_loc     0x00000000000000ee       0xf7 project.o
 .debug_loc     0x00000000000001e5     0x1780 fpr.o
 .debug_loc     0x0000000000001965     0x430c fft.o

.debug_aranges  0x0000000000000000      0x170
 .debug_aranges
                0x0000000000000000       0x30 vector.o
 .debug_aranges
                0x0000000000000030       0x28 project.o
 .debug_aranges
                0x0000000000000058       0x58 fpr.o
 .debug_aranges
                0x00000000000000b0       0xc0 fft.o

.debug_ranges   0x0000000000000000      0x898
 .debug_ranges  0x0000000000000000       0x20 vector.o
 .debug_ranges  0x0000000000000020       0x18 project.o
 .debug_ranges  0x0000000000000038      0x148 fpr.o
 .debug_ranges  0x0000000000000180      0x718 fft.o

.debug_line     0x0000000000000000     0x3448
 .debug_line    0x0000000000000000       0xf9 vector.o
 .debug_line    0x00000000000000f9      0x214 project.o
 .debug_line    0x000000000000030d      0xd09 fpr.o
 .debug_line    0x0000000000001016     0x2432 fft.o

.debug_str      0x0000000000000000      0x905
 .debug_str     0x0000000000000000      0x285 vector.o
                                        0x2be (size before relaxing)
 .debug_str     0x0000000000000285      0x28e project.o
                                        0x33d (size before relaxing)
 .debug_str     0x0000000000000513      0x115 fpr.o
                                        0x392 (size before relaxing)
 .debug_str     0x0000000000000628      0x2dd fft.o
                                        0x615 (size before relaxing)

.comment        0x0000000000000000       0xbd
 .comment       0x0000000000000000       0x70 vector.o
                                         0x71 (size before relaxing)
 .comment       0x0000000000000070       0x4d project.o
                                         0x4e (size before relaxing)
 .comment       0x00000000000000bd       0x4e fpr.o
 .comment       0x00000000000000bd       0x4e fft.o

.ARM.attributes
                0x0000000000000000       0x2f
 .ARM.attributes
                0x0000000000000000       0x31 vector.o
 .ARM.attributes
                0x0000000000000031       0x2c project.o
 .ARM.attributes
                0x000000000000005d       0x2c fpr.o
 .ARM.attributes
                0x0000000000000089       0x2c fft.o
 .ARM.attributes
                0x00000000000000b5       0x21 elmoasmfunctions.o
 .ARM.attributes
                0x00000000000000d6       0x1e /usr/bin/../lib/gcc/arm-none-eabi/10.2.1/thumb/v6-m/nofp/libgcc.a(_lshrdi3.o)
 .ARM.attributes
                0x00000000000000f4       0x1e /usr/bin/../lib/gcc/arm-none-eabi/10.2.1/thumb/v6-m/nofp/libgcc.a(_ashldi3.o)
 .ARM.attributes
                0x0000000000000112       0x2c /usr/bin/../lib/gcc/arm-none-eabi/10.2.1/thumb/v6-m/nofp/libgcc.a(_muldi3.o)

.debug_frame    0x0000000000000000      0x46c
 .debug_frame   0x0000000000000000       0x40 vector.o
 .debug_frame   0x0000000000000040       0x48 project.o
 .debug_frame   0x0000000000000088      0x114 fpr.o
 .debug_frame   0x000000000000019c      0x29c fft.o
 .debug_frame   0x0000000000000438       0x34 /usr/bin/../lib/gcc/arm-none-eabi/10.2.1/thumb/v6-m/nofp/libgcc.a(_muldi3.o)
